; Function Attrs: mustprogress nofree nounwind uwtable
define noundef nonnull ptr @_ZN9benchmark8internal9Benchmark10IterationsEl(ptr noundef nonnull returned writeonly align 8 captures(ret: address, provenance) dereferenceable(224) initializes((128, 136)) %0, i64 noundef %1) local_unnamed_addr #3 align 2 personality ptr @__gxx_personality_v0 {
  %3 = load atomic i8, ptr @_ZGVZN9benchmark8internal18GetNullLogInstanceEvE8null_log acquire, align 8
  %4 = icmp eq i8 %3, 0
  br i1 %4, label %5, label %_ZN9benchmark8internal18GetNullLogInstanceEv.exit, !prof !3

5:                                                ; preds = %2
  %6 = tail call i32 @__cxa_guard_acquire(ptr nonnull @_ZGVZN9benchmark8internal18GetNullLogInstanceEvE8null_log) #35
  %.not.i = icmp eq i32 %6, 0
  br i1 %.not.i, label %_ZN9benchmark8internal18GetNullLogInstanceEv.exit, label %7

7:                                                ; preds = %5
  store ptr null, ptr @_ZZN9benchmark8internal18GetNullLogInstanceEvE8null_log, align 8, !tbaa !18
  tail call void @__cxa_guard_release(ptr nonnull @_ZGVZN9benchmark8internal18GetNullLogInstanceEvE8null_log) #35
  br label %_ZN9benchmark8internal18GetNullLogInstanceEv.exit

_ZN9benchmark8internal18GetNullLogInstanceEv.exit: ; preds = %2, %5, %7
  %8 = load atomic i8, ptr @_ZGVZN9benchmark8internal18GetNullLogInstanceEvE8null_log acquire, align 8
  %9 = icmp eq i8 %8, 0
  br i1 %9, label %10, label %_ZN9benchmark8internal18GetNullLogInstanceEv.exit2, !prof !3

10:                                               ; preds = %_ZN9benchmark8internal18GetNullLogInstanceEv.exit
  %11 = tail call i32 @__cxa_guard_acquire(ptr nonnull @_ZGVZN9benchmark8internal18GetNullLogInstanceEvE8null_log) #35
  %.not.i1 = icmp eq i32 %11, 0
  br i1 %.not.i1, label %_ZN9benchmark8internal18GetNullLogInstanceEv.exit2, label %12

12:                                               ; preds = %10
  store ptr null, ptr @_ZZN9benchmark8internal18GetNullLogInstanceEvE8null_log, align 8, !tbaa !18
  tail call void @__cxa_guard_release(ptr nonnull @_ZGVZN9benchmark8internal18GetNullLogInstanceEvE8null_log) #35
  br label %_ZN9benchmark8internal18GetNullLogInstanceEv.exit2

_ZN9benchmark8internal18GetNullLogInstanceEv.exit2: ; preds = %_ZN9benchmark8internal18GetNullLogInstanceEv.exit, %10, %12
  %13 = load atomic i8, ptr @_ZGVZN9benchmark8internal18GetNullLogInstanceEvE8null_log acquire, align 8
  %14 = icmp eq i8 %13, 0
  br i1 %14, label %15, label %_ZN9benchmark8internal18GetNullLogInstanceEv.exit4, !prof !3

15:                                               ; preds = %_ZN9benchmark8internal18GetNullLogInstanceEv.exit2
  %16 = tail call i32 @__cxa_guard_acquire(ptr nonnull @_ZGVZN9benchmark8internal18GetNullLogInstanceEvE8null_log) #35
  %.not.i3 = icmp eq i32 %16, 0
  br i1 %.not.i3, label %_ZN9benchmark8internal18GetNullLogInstanceEv.exit4, label %17

17:                                               ; preds = %15
  store ptr null, ptr @_ZZN9benchmark8internal18GetNullLogInstanceEvE8null_log, align 8, !tbaa !18
  tail call void @__cxa_guard_release(ptr nonnull @_ZGVZN9benchmark8internal18GetNullLogInstanceEvE8null_log) #35
  br label %_ZN9benchmark8internal18GetNullLogInstanceEv.exit4

_ZN9benchmark8internal18GetNullLogInstanceEv.exit4: ; preds = %_ZN9benchmark8internal18GetNullLogInstanceEv.exit2, %15, %17
  %18 = getelementptr inbounds nuw i8, ptr %0, i64 128
  store i64 %1, ptr %18, align 8, !tbaa !175
  ret ptr %0
}